(lp0
(lp1
I6
aI3
aI8
aa(lp2
I4
aI2
aI2
aa(lp3
I3
aI8
aI3
aa(lp4
I6
aI3
aI4
aa(lp5
I7
aI3
aI3
aa(lp6
I3
aI8
aI3
aa(lp7
I0
aI2
aI2
aa(lp8
I1
aI9
aI2
aa(lp9
I1
aI9
aI8
aa(lp10
I7
aI5
aI2
aa(lp11
I3
aI0
aI2
aa(lp12
I2
aI1
aI2
aa(lp13
I2
aI1
aI1
aa(lp14
I4
aI3
aI7
aa(lp15
I6
aI2
aI7
aa(lp16
I0
aI3
aI7
aa(lp17
I5
aI6
aI8
aa(lp18
I2
aI3
aI3
aa(lp19
I7
aI2
aI0
aa(lp20
I5
aI5
aI2
aa(lp21
I1
aI7
aI0
aa(lp22
I9
aI9
aI7
aa(lp23
I9
aI1
aI8
aa(lp24
I7
aI1
aI7
aa(lp25
I0
aI6
aI5
aa(lp26
I0
aI9
aI6
aa(lp27
I2
aI6
aI8
aa(lp28
I4
aI5
aI9
aa(lp29
I9
aI2
aI6
aa(lp30
I3
aI5
aI2
aa(lp31
I7
aI1
aI8
aa(lp32
I8
aI6
aI9
aa(lp33
I4
aI8
aI5
aa(lp34
I7
aI2
aI2
aa(lp35
I8
aI4
aI2
aa(lp36
I8
aI4
aI6
aa(lp37
I3
aI7
aI0
aa(lp38
I4
aI2
aI4
aa(lp39
I9
aI4
aI3
aa(lp40
I3
aI3
aI0
aa(lp41
I5
aI0
aI6
aa(lp42
I6
aI4
aI9
aa(lp43
I6
aI5
aI5
aa(lp44
I1
aI6
aI3
aa(lp45
I2
aI9
aI0
aa(lp46
I4
aI6
aI9
aa(lp47
I5
aI3
aI1
aa(lp48
I6
aI7
aI3
aa(lp49
I8
aI7
aI8
aa(lp50
I6
aI2
aI2
aa(lp51
I6
aI0
aI2
aa(lp52
I8
aI7
aI4
aa(lp53
I7
aI1
aI5
aa(lp54
I3
aI6
aI2
aa(lp55
I3
aI2
aI2
aa(lp56
I4
aI1
aI2
aa(lp57
I6
aI6
aI8
aa(lp58
I4
aI1
aI9
aa(lp59
I3
aI1
aI4
aa(lp60
I2
aI7
aI3
aa(lp61
I5
aI1
aI6
aa(lp62
I2
aI4
aI1
aa(lp63
I6
aI0
aI6
aa(lp64
I8
aI3
aI4
aa(lp65
I1
aI0
aI9
aa(lp66
I6
aI4
aI5
aa(lp67
I4
aI4
aI3
aa(lp68
I9
aI1
aI9
aa(lp69
I6
aI2
aI1
aa(lp70
I0
aI1
aI9
aa(lp71
I7
aI0
aI2
aa(lp72
I7
aI5
aI8
aa(lp73
I0
aI8
aI9
aa(lp74
I2
aI7
aI5
aa(lp75
I2
aI0
aI1
aa(lp76
I6
aI9
aI6
aa(lp77
I3
aI1
aI4
aa(lp78
I5
aI1
aI9
aa(lp79
I1
aI3
aI1
aa(lp80
I5
aI8
aI8
aa(lp81
I4
aI7
aI2
aa(lp82
I4
aI9
aI9
aa(lp83
I5
aI4
aI2
aa(lp84
I5
aI1
aI0
aa(lp85
I6
aI2
aI8
aa(lp86
I0
aI8
aI1
aa(lp87
I0
aI6
aI6
aa(lp88
I2
aI8
aI3
aa(lp89
I1
aI9
aI2
aa(lp90
I9
aI7
aI6
aa(lp91
I2
aI7
aI0
aa(lp92
I0
aI6
aI2
aa(lp93
I0
aI2
aI6
aa(lp94
I0
aI2
aI3
aa(lp95
I6
aI6
aI3
aa(lp96
I6
aI5
aI3
aa(lp97
I9
aI3
aI2
aa(lp98
I4
aI1
aI6
aa(lp99
I0
aI9
aI5
aa(lp100
I0
aI9
aI7
aa(lp101
I4
aI7
aI0
aa(lp102
I7
aI5
aI3
aa(lp103
I0
aI7
aI6
aa(lp104
I8
aI0
aI1
aa(lp105
I3
aI1
aI3
aa(lp106
I6
aI2
aI4
aa(lp107
I8
aI4
aI1
aa(lp108
I4
aI4
aI9
aa(lp109
I2
aI1
aI3
aa(lp110
I8
aI7
aI5
aa(lp111
I9
aI7
aI8
aa(lp112
I9
aI5
aI8
aa(lp113
I6
aI7
aI2
aa(lp114
I1
aI6
aI3
aa(lp115
I8
aI9
aI3
aa(lp116
I1
aI2
aI5
aa(lp117
I7
aI3
aI7
aa(lp118
I8
aI8
aI7
aa(lp119
I6
aI7
aI2
aa(lp120
I4
aI0
aI4
aa(lp121
I8
aI3
aI1
aa(lp122
I6
aI1
aI4
aa(lp123
I0
aI4
aI1
aa(lp124
I5
aI5
aI4
aa(lp125
I9
aI7
aI0
aa(lp126
I1
aI2
aI3
aa(lp127
I7
aI2
aI5
aa(lp128
I4
aI2
aI5
aa(lp129
I4
aI2
aI7
aa(lp130
I4
aI6
aI7
aa(lp131
I2
aI2
aI7
aa(lp132
I2
aI4
aI2
aa(lp133
I0
aI9
aI2
aa(lp134
I0
aI1
aI7
aa(lp135
I0
aI0
aI0
aa(lp136
I8
aI7
aI9
aa(lp137
I2
aI3
aI8
aa(lp138
I1
aI7
aI6
aa(lp139
I5
aI6
aI4
aa(lp140
I8
aI5
aI5
aa(lp141
I6
aI7
aI8
aa(lp142
I0
aI7
aI7
aa(lp143
I7
aI7
aI9
aa(lp144
I1
aI3
aI7
aa(lp145
I9
aI9
aI8
aa(lp146
I0
aI7
aI2
aa(lp147
I0
aI1
aI6
aa(lp148
I4
aI6
aI3
aa(lp149
I0
aI0
aI8
aa(lp150
I1
aI9
aI2
aa(lp151
I7
aI3
aI0
aa(lp152
I7
aI2
aI9
aa(lp153
I9
aI4
aI2
aa(lp154
I6
aI5
aI5
aa(lp155
I9
aI7
aI3
aa(lp156
I7
aI9
aI8
aa(lp157
I9
aI3
aI5
aa(lp158
I9
aI0
aI0
aa(lp159
I7
aI7
aI2
aa(lp160
I8
aI4
aI8
aa(lp161
I0
aI5
aI0
aa(lp162
I4
aI0
aI3
aa(lp163
I4
aI5
aI4
aa(lp164
I6
aI7
aI7
aa(lp165
I3
aI0
aI6
aa(lp166
I8
aI9
aI5
aa(lp167
I9
aI3
aI7
aa(lp168
I8
aI3
aI4
aa(lp169
I8
aI7
aI6
aa(lp170
I4
aI4
aI5
aa(lp171
I0
aI4
aI1
aa(lp172
I7
aI7
aI5
aa(lp173
I0
aI7
aI5
aa(lp174
I8
aI7
aI0
aa(lp175
I0
aI9
aI3
aa(lp176
I9
aI0
aI5
aa(lp177
I0
aI1
aI2
aa(lp178
I8
aI6
aI7
aa(lp179
I0
aI0
aI1
aa(lp180
I7
aI7
aI0
aa(lp181
I1
aI0
aI7
aa(lp182
I5
aI4
aI4
aa(lp183
I5
aI1
aI1
aa(lp184
I7
aI6
aI3
aa(lp185
I8
aI7
aI2
aa(lp186
I3
aI2
aI7
aa(lp187
I6
aI0
aI2
aa(lp188
I2
aI7
aI0
aa(lp189
I2
aI4
aI9
aa(lp190
I3
aI3
aI5
aa(lp191
I7
aI6
aI5
aa(lp192
I7
aI4
aI4
aa(lp193
I8
aI8
aI1
aa(lp194
I9
aI2
aI8
aa(lp195
I4
aI0
aI1
aa(lp196
I3
aI3
aI4
aa(lp197
I7
aI4
aI4
aa(lp198
I0
aI4
aI6
aa(lp199
I9
aI1
aI8
aa(lp200
I0
aI6
aI4
aa(lp201
I9
aI1
aI4
aa(lp202
I3
aI3
aI7
aa(lp203
I0
aI4
aI9
aa(lp204
I1
aI2
aI3
aa(lp205
I7
aI4
aI5
aa(lp206
I2
aI3
aI3
aa(lp207
I3
aI8
aI5
aa(lp208
I9
aI4
aI4
aa(lp209
I1
aI5
aI7
aa(lp210
I1
aI8
aI6
aa(lp211
I3
aI7
aI3
aa(lp212
I3
aI8
aI3
aa(lp213
I8
aI8
aI0
aa(lp214
I0
aI5
aI5
aa(lp215
I4
aI4
aI0
aa(lp216
I3
aI6
aI6
aa(lp217
I4
aI4
aI6
aa(lp218
I8
aI3
aI8
aa(lp219
I4
aI0
aI4
aa(lp220
I6
aI4
aI0
aa(lp221
I1
aI8
aI3
aa(lp222
I3
aI8
aI9
aa(lp223
I8
aI4
aI4
aa(lp224
I7
aI3
aI8
aa(lp225
I9
aI8
aI2
aa(lp226
I4
aI5
aI2
aa(lp227
I5
aI6
aI5
aa(lp228
I6
aI9
aI6
aa(lp229
I2
aI6
aI2
aa(lp230
I5
aI9
aI2
aa(lp231
I1
aI9
aI5
aa(lp232
I0
aI6
aI3
aa(lp233
I7
aI9
aI2
aa(lp234
I8
aI8
aI9
aa(lp235
I1
aI2
aI2
aa(lp236
I5
aI7
aI2
aa(lp237
I6
aI7
aI3
aa(lp238
I1
aI8
aI5
aa(lp239
I0
aI9
aI6
aa(lp240
I8
aI7
aI4
aa(lp241
I1
aI2
aI0
aa(lp242
I8
aI5
aI4
aa(lp243
I5
aI0
aI2
aa(lp244
I1
aI7
aI0
aa(lp245
I2
aI6
aI0
aa(lp246
I7
aI9
aI6
aa(lp247
I5
aI8
aI2
aa(lp248
I7
aI6
aI4
aa(lp249
I8
aI7
aI7
aa(lp250
I7
aI7
aI4
aa(lp251
I0
aI3
aI6
aa(lp252
I8
aI9
aI2
aa(lp253
I4
aI0
aI2
aa(lp254
I5
aI7
aI6
aa(lp255
I9
aI2
aI2
aa(lp256
I2
aI6
aI0
aa(lp257
I2
aI2
aI3
aa(lp258
I3
aI1
aI2
aa(lp259
I0
aI4
aI5
aa(lp260
I9
aI0
aI0
aa(lp261
I9
aI6
aI3
aa(lp262
I8
aI5
aI8
aa(lp263
I4
aI1
aI4
aa(lp264
I2
aI3
aI8
aa(lp265
I7
aI9
aI1
aa(lp266
I4
aI6
aI5
aa(lp267
I8
aI8
aI6
aa(lp268
I7
aI4
aI4
aa(lp269
I1
aI1
aI9
aa(lp270
I4
aI9
aI3
aa(lp271
I1
aI0
aI1
aa(lp272
I4
aI8
aI2
aa(lp273
I8
aI9
aI0
aa(lp274
I1
aI5
aI2
aa(lp275
I0
aI9
aI8
aa(lp276
I6
aI1
aI3
aa(lp277
I3
aI9
aI4
aa(lp278
I2
aI2
aI5
aa(lp279
I3
aI4
aI8
aa(lp280
I8
aI8
aI0
aa(lp281
I0
aI0
aI8
aa(lp282
I8
aI5
aI1
aa(lp283
I5
aI4
aI6
aa(lp284
I5
aI3
aI2
aa(lp285
I0
aI7
aI4
aa(lp286
I8
aI3
aI2
aa(lp287
I2
aI3
aI0
aa(lp288
I0
aI5
aI0
aa(lp289
I5
aI9
aI8
aa(lp290
I4
aI1
aI0
aa(lp291
I3
aI4
aI7
aa(lp292
I5
aI2
aI1
aa(lp293
I5
aI6
aI3
aa(lp294
I6
aI7
aI3
aa(lp295
I6
aI3
aI5
aa(lp296
I4
aI9
aI7
aa(lp297
I0
aI3
aI9
aa(lp298
I7
aI8
aI8
aa(lp299
I0
aI5
aI5
aa(lp300
I5
aI9
aI3
aa(lp301
I9
aI1
aI8
aa(lp302
I6
aI2
aI9
aa(lp303
I0
aI4
aI2
aa(lp304
I2
aI8
aI3
aa(lp305
I5
aI8
aI3
aa(lp306
I3
aI4
aI6
aa(lp307
I9
aI3
aI8
aa(lp308
I7
aI4
aI7
aa(lp309
I6
aI3
aI5
aa(lp310
I4
aI3
aI8
aa(lp311
I1
aI0
aI1
aa(lp312
I1
aI0
aI1
aa(lp313
I5
aI4
aI9
aa(lp314
I0
aI5
aI3
aa(lp315
I3
aI2
aI2
aa(lp316
I2
aI8
aI1
aa(lp317
I3
aI8
aI0
aa(lp318
I6
aI9
aI9
aa(lp319
I5
aI0
aI1
aa(lp320
I4
aI5
aI3
aa(lp321
I5
aI8
aI4
aa(lp322
I5
aI4
aI2
aa(lp323
I4
aI3
aI6
aa(lp324
I7
aI4
aI2
aa(lp325
I7
aI5
aI7
aa(lp326
I3
aI9
aI3
aa(lp327
I3
aI8
aI6
aa(lp328
I4
aI8
aI7
aa(lp329
I5
aI6
aI7
aa(lp330
I4
aI6
aI6
aa(lp331
I7
aI4
aI2
aa(lp332
I5
aI8
aI6
aa(lp333
I3
aI2
aI2
aa(lp334
I2
aI1
aI4
aa(lp335
I6
aI1
aI8
aa(lp336
I7
aI2
aI3
aa(lp337
I8
aI9
aI2
aa(lp338
I6
aI5
aI5
aa(lp339
I9
aI8
aI0
aa(lp340
I8
aI4
aI1
aa(lp341
I5
aI3
aI8
aa(lp342
I8
aI1
aI7
aa(lp343
I7
aI9
aI9
aa(lp344
I5
aI3
aI5
aa(lp345
I6
aI3
aI3
aa(lp346
I6
aI2
aI3
aa(lp347
I3
aI1
aI7
aa(lp348
I8
aI4
aI2
aa(lp349
I5
aI6
aI9
aa(lp350
I2
aI8
aI7
aa(lp351
I1
aI9
aI8
aa(lp352
I1
aI8
aI9
aa(lp353
I9
aI9
aI8
aa(lp354
I4
aI0
aI6
aa(lp355
I8
aI4
aI7
aa(lp356
I3
aI1
aI1
aa(lp357
I8
aI0
aI4
aa(lp358
I9
aI2
aI1
aa(lp359
I8
aI5
aI2
aa(lp360
I2
aI8
aI6
aa(lp361
I1
aI0
aI8
aa(lp362
I5
aI3
aI7
aa(lp363
I1
aI5
aI9
aa(lp364
I0
aI6
aI6
aa(lp365
I5
aI2
aI7
aa(lp366
I1
aI4
aI4
aa(lp367
I5
aI9
aI6
aa(lp368
I2
aI6
aI9
aa(lp369
I0
aI4
aI7
aa(lp370
I0
aI6
aI3
aa(lp371
I0
aI3
aI6
aa(lp372
I1
aI1
aI9
aa(lp373
I5
aI0
aI9
aa(lp374
I5
aI3
aI6
aa(lp375
I8
aI5
aI2
aa(lp376
I4
aI0
aI3
aa(lp377
I4
aI2
aI2
aa(lp378
I5
aI7
aI5
aa(lp379
I8
aI2
aI2
aa(lp380
I6
aI3
aI0
aa(lp381
I4
aI0
aI8
aa(lp382
I7
aI1
aI7
aa(lp383
I6
aI4
aI9
aa(lp384
I6
aI6
aI5
aa(lp385
I8
aI4
aI7
aa(lp386
I4
aI5
aI2
aa(lp387
I0
aI6
aI2
aa(lp388
I9
aI3
aI9
aa(lp389
I3
aI2
aI3
aa(lp390
I6
aI2
aI8
aa(lp391
I4
aI4
aI0
aa(lp392
I7
aI1
aI0
aa(lp393
I2
aI4
aI3
aa(lp394
I7
aI9
aI7
aa(lp395
I3
aI7
aI3
aa(lp396
I5
aI0
aI5
aa(lp397
I6
aI6
aI7
aa(lp398
I9
aI7
aI0
aa(lp399
I6
aI0
aI3
aa(lp400
I6
aI5
aI4
aa(lp401
I3
aI6
aI6
aa(lp402
I8
aI3
aI3
aa(lp403
I1
aI9
aI9
aa(lp404
I6
aI8
aI6
aa(lp405
I0
aI0
aI6
aa(lp406
I6
aI5
aI9
aa(lp407
I0
aI6
aI7
aa(lp408
I8
aI6
aI6
aa(lp409
I9
aI1
aI0
aa(lp410
I9
aI2
aI9
aa(lp411
I9
aI6
aI2
aa(lp412
I6
aI3
aI3
aa(lp413
I4
aI3
aI4
aa(lp414
I7
aI4
aI9
aa(lp415
I2
aI3
aI8
aa(lp416
I9
aI7
aI6
aa(lp417
I7
aI4
aI3
aa(lp418
I2
aI1
aI4
aa(lp419
I1
aI2
aI7
aa(lp420
I8
aI7
aI6
aa(lp421
I4
aI7
aI4
aa(lp422
I4
aI6
aI6
aa(lp423
I7
aI2
aI6
aa(lp424
I9
aI1
aI3
aa(lp425
I7
aI4
aI6
aa(lp426
I8
aI5
aI6
aa(lp427
I4
aI7
aI1
aa(lp428
I9
aI3
aI7
aa(lp429
I9
aI0
aI1
aa(lp430
I5
aI0
aI3
aa(lp431
I4
aI7
aI1
aa(lp432
I8
aI6
aI6
aa(lp433
I6
aI5
aI1
aa(lp434
I5
aI3
aI7
aa(lp435
I7
aI8
aI6
aa(lp436
I3
aI4
aI8
aa(lp437
I5
aI6
aI9
aa(lp438
I8
aI8
aI3
aa(lp439
I8
aI9
aI9
aa(lp440
I9
aI6
aI8
aa(lp441
I8
aI2
aI7
aa(lp442
I5
aI0
aI6
aa(lp443
I8
aI3
aI0
aa(lp444
I1
aI3
aI3
aa(lp445
I6
aI4
aI8
aa(lp446
I1
aI5
aI6
aa(lp447
I9
aI5
aI3
aa(lp448
I6
aI8
aI2
aa(lp449
I0
aI3
aI6
aa(lp450
I3
aI9
aI9
aa(lp451
I3
aI7
aI4
aa(lp452
I8
aI6
aI9
aa(lp453
I1
aI1
aI4
aa(lp454
I5
aI2
aI1
aa(lp455
I0
aI7
aI4
aa(lp456
I5
aI0
aI6
aa(lp457
I1
aI7
aI9
aa(lp458
I8
aI5
aI3
aa(lp459
I6
aI2
aI1
aa(lp460
I0
aI7
aI8
aa(lp461
I6
aI8
aI6
aa(lp462
I1
aI0
aI9
aa(lp463
I5
aI5
aI1
aa(lp464
I5
aI2
aI2
aa(lp465
I1
aI8
aI2
aa(lp466
I7
aI7
aI7
aa(lp467
I7
aI1
aI6
aa(lp468
I4
aI7
aI1
aa(lp469
I6
aI4
aI0
aa(lp470
I6
aI7
aI1
aa(lp471
I7
aI5
aI3
aa(lp472
I1
aI9
aI3
aa(lp473
I6
aI4
aI9
aa(lp474
I2
aI3
aI5
aa(lp475
I4
aI8
aI3
aa(lp476
I1
aI4
aI6
aa(lp477
I6
aI3
aI3
aa(lp478
I7
aI7
aI4
aa(lp479
I0
aI5
aI0
aa(lp480
I5
aI3
aI5
aa(lp481
I5
aI1
aI9
aa(lp482
I1
aI9
aI8
aa(lp483
I0
aI0
aI6
aa(lp484
I1
aI5
aI5
aa(lp485
I9
aI6
aI0
aa(lp486
I8
aI8
aI8
aa(lp487
I2
aI9
aI3
aa(lp488
I8
aI9
aI5
aa(lp489
I1
aI1
aI4
aa(lp490
I6
aI9
aI8
aa(lp491
I5
aI3
aI0
aa(lp492
I9
aI7
aI7
aa(lp493
I7
aI6
aI5
aa(lp494
I5
aI6
aI9
aa.